; Function Attrs: nounwind uwtable
define dso_local range(i32 -1, 2) i32 @PyWeakref_GetRef(ptr noundef readonly %0, ptr noundef writeonly captures(none) initializes((0, 8)) %1) local_unnamed_addr #0 {
  %3 = icmp eq ptr %0, null
  br i1 %3, label %4, label %5

4:                                                ; preds = %2
  store ptr null, ptr %1, align 8, !tbaa !45
  tail call void @_PyErr_BadInternalCall(ptr noundef nonnull @.str.3, i32 noundef 954) #6
  br label %20

5:                                                ; preds = %2
  %6 = getelementptr i8, ptr %0, i64 8
  %.val14 = load ptr, ptr %6, align 8, !tbaa !4
  %.not.i = icmp eq ptr %.val14, @_PyWeakref_RefType
  br i1 %.not.i, label %PyObject_TypeCheck.exit.thread, label %PyObject_TypeCheck.exit

PyObject_TypeCheck.exit:                          ; preds = %5
  %7 = tail call i32 @PyType_IsSubtype(ptr noundef %.val14, ptr noundef nonnull @_PyWeakref_RefType) #6
  %.not16 = icmp eq i32 %7, 0
  br i1 %.not16, label %8, label %PyObject_TypeCheck.exit.thread

8:                                                ; preds = %PyObject_TypeCheck.exit
  %.val12 = load ptr, ptr %6, align 8, !tbaa !4
  %.not = icmp eq ptr %.val12, @_PyWeakref_ProxyType
  %.not17 = icmp eq ptr %.val12, @_PyWeakref_CallableProxyType
  %or.cond = or i1 %.not, %.not17
  br i1 %or.cond, label %PyObject_TypeCheck.exit.thread, label %9

9:                                                ; preds = %8
  store ptr null, ptr %1, align 8, !tbaa !45
  %10 = load ptr, ptr @PyExc_TypeError, align 8, !tbaa !45
  tail call void @PyErr_SetString(ptr noundef %10, ptr noundef nonnull @.str.5) #6
  br label %20

PyObject_TypeCheck.exit.thread:                   ; preds = %5, %8, %PyObject_TypeCheck.exit
  %11 = getelementptr i8, ptr %0, i64 16
  %.val13 = load ptr, ptr %11, align 8, !tbaa !37
  %12 = icmp eq ptr %.val13, @_Py_NoneStruct
  br i1 %12, label %_PyWeakref_GET_REF.exit, label %13

13:                                               ; preds = %PyObject_TypeCheck.exit.thread
  %.val.i.i = load i32, ptr %.val13, align 8, !tbaa !42
  %.not.i.i = icmp eq i32 %.val.i.i, 0
  br i1 %.not.i.i, label %_PyWeakref_GET_REF.exit, label %14

14:                                               ; preds = %13
  %15 = icmp slt i32 %.val.i.i, 0
  br i1 %15, label %_PyWeakref_GET_REF.exit, label %16

16:                                               ; preds = %14
  %17 = add nuw i32 %.val.i.i, 1
  store i32 %17, ptr %.val13, align 8, !tbaa !42
  br label %_PyWeakref_GET_REF.exit

_PyWeakref_GET_REF.exit:                          ; preds = %PyObject_TypeCheck.exit.thread, %13, %14, %16
  %.0.i = phi ptr [ null, %PyObject_TypeCheck.exit.thread ], [ null, %13 ], [ %.val13, %14 ], [ %.val13, %16 ]
  store ptr %.0.i, ptr %1, align 8, !tbaa !45
  %18 = icmp ne ptr %.0.i, null
  %19 = zext i1 %18 to i32
  br label %20

20:                                               ; preds = %_PyWeakref_GET_REF.exit, %9, %4
  %.0 = phi i32 [ -1, %4 ], [ %19, %_PyWeakref_GET_REF.exit ], [ -1, %9 ]
  ret i32 %.0
}